cnumpy.core.multiarray
_reconstruct
p0
(cnumpy
ndarray
p1
(I0
tp2
S'b'
p3
tp4
Rp5
(I1
(I1
I1
tp6
cnumpy
dtype
p7
(S'S25'
p8
I0
I1
tp9
Rp10
(I3
S'|'
p11
NNNI25
I1
I0
tp12
bI00
S' 0.852525, 0, 0.522687, 0'
p13
tp14
b.